; Function Attrs: mustprogress uwtable
define noundef zeroext i1 @_ZNK8facebook5velox4Type10kindEqualsERKSt10shared_ptrIKS1_E(ptr noundef nonnull align 8 dereferenceable(17) %this, ptr nocapture noundef nonnull readonly align 8 dereferenceable(16) %other) local_unnamed_addr #0 align 2 {
entry:
  %kind_.i = getelementptr inbounds i8, ptr %this, i64 16
  %0 = load i8, ptr %kind_.i, align 8
  %1 = load ptr, ptr %other, align 8
  %kind_.i6 = getelementptr inbounds i8, ptr %1, i64 16
  %2 = load i8, ptr %kind_.i6, align 8
  %cmp.not = icmp eq i8 %0, %2
  br i1 %cmp.not, label %if.end, label %return

if.end:                                           ; preds = %entry
  %vtable = load ptr, ptr %this, align 8
  %vfn = getelementptr inbounds i8, ptr %vtable, i64 16
  %3 = load ptr, ptr %vfn, align 8
  %call4 = tail call noundef i32 %3(ptr noundef nonnull align 8 dereferenceable(8) %this)
  %4 = load ptr, ptr %other, align 8
  %vtable6 = load ptr, ptr %4, align 8
  %vfn7 = getelementptr inbounds i8, ptr %vtable6, i64 16
  %5 = load ptr, ptr %vfn7, align 8
  %call8 = tail call noundef i32 %5(ptr noundef nonnull align 8 dereferenceable(8) %4)
  %cmp9.not = icmp eq i32 %call4, %call8
  br i1 %cmp9.not, label %for.cond.preheader, label %return

for.cond.preheader:                               ; preds = %if.end
  %vtable127 = load ptr, ptr %this, align 8
  %vfn138 = getelementptr inbounds i8, ptr %vtable127, i64 16
  %6 = load ptr, ptr %vfn138, align 8
  %call149 = tail call noundef i32 %6(ptr noundef nonnull align 8 dereferenceable(8) %this)
  %cmp1511.not = icmp eq i32 %call149, 0
  br i1 %cmp1511.not, label %return, label %for.body

for.cond:                                         ; preds = %for.body
  %inc = add nuw nsw i64 %i.012, 1
  %vtable12 = load ptr, ptr %this, align 8
  %vfn13 = getelementptr inbounds i8, ptr %vtable12, i64 16
  %7 = load ptr, ptr %vfn13, align 8
  %call14 = tail call noundef i32 %7(ptr noundef nonnull align 8 dereferenceable(8) %this)
  %conv = zext i32 %call14 to i64
  %cmp15 = icmp ult i64 %inc, %conv
  br i1 %cmp15, label %for.body, label %return, !llvm.loop !88

for.body:                                         ; preds = %for.cond.preheader, %for.cond
  %i.012 = phi i64 [ %inc, %for.cond ], [ 0, %for.cond.preheader ]
  %conv16 = trunc i64 %i.012 to i32
  %vtable17 = load ptr, ptr %this, align 8
  %vfn18 = getelementptr inbounds i8, ptr %vtable17, i64 24
  %8 = load ptr, ptr %vfn18, align 8
  %call19 = tail call noundef nonnull align 8 dereferenceable(16) ptr %8(ptr noundef nonnull align 8 dereferenceable(8) %this, i32 noundef %conv16)
  %9 = load ptr, ptr %call19, align 8
  %10 = load ptr, ptr %other, align 8
  %vtable23 = load ptr, ptr %10, align 8
  %vfn24 = getelementptr inbounds i8, ptr %vtable23, i64 24
  %11 = load ptr, ptr %vfn24, align 8
  %call25 = tail call noundef nonnull align 8 dereferenceable(16) ptr %11(ptr noundef nonnull align 8 dereferenceable(8) %10, i32 noundef %conv16)
  %call26 = tail call noundef zeroext i1 @_ZNK8facebook5velox4Type10kindEqualsERKSt10shared_ptrIKS1_E(ptr noundef nonnull align 8 dereferenceable(17) %9, ptr noundef nonnull align 8 dereferenceable(16) %call25)
  br i1 %call26, label %for.cond, label %return

return:                                           ; preds = %for.body, %for.cond, %for.cond.preheader, %if.end, %entry
  %retval.0 = phi i1 [ false, %entry ], [ false, %if.end ], [ true, %for.cond.preheader ], [ %call26, %for.cond ], [ %call26, %for.body ]
  ret i1 %retval.0
}